ARM GAS  C:\Users\Rob\AppData\Local\Temp\ccRz8Y3P.s 			page 1


   1              		.syntax unified
   2              		.cpu cortex-m3
   3              		.fpu softvfp
   4              		.eabi_attribute 20, 1
   5              		.eabi_attribute 21, 1
   6              		.eabi_attribute 23, 3
   7              		.eabi_attribute 24, 1
   8              		.eabi_attribute 25, 1
   9              		.eabi_attribute 26, 1
  10              		.eabi_attribute 30, 1
  11              		.eabi_attribute 34, 1
  12              		.eabi_attribute 18, 4
  13              		.thumb
  14              		.syntax unified
  15              		.file	"C_Out.c"
  16              		.text
  17              	.Ltext0:
  18              		.cfi_sections	.debug_frame
  19              		.section	.text.C_Out_Write,"ax",%progbits
  20              		.align	2
  21              		.global	C_Out_Write
  22              		.thumb
  23              		.thumb_func
  24              		.type	C_Out_Write, %function
  25              	C_Out_Write:
  26              	.LFB0:
  27              		.file 1 "Generated_Source\\PSoC5\\C_Out.c"
   1:Generated_Source\PSoC5/C_Out.c **** /*******************************************************************************
   2:Generated_Source\PSoC5/C_Out.c **** * File Name: C_Out.c  
   3:Generated_Source\PSoC5/C_Out.c **** * Version 2.20
   4:Generated_Source\PSoC5/C_Out.c **** *
   5:Generated_Source\PSoC5/C_Out.c **** * Description:
   6:Generated_Source\PSoC5/C_Out.c **** *  This file contains API to enable firmware control of a Pins component.
   7:Generated_Source\PSoC5/C_Out.c **** *
   8:Generated_Source\PSoC5/C_Out.c **** * Note:
   9:Generated_Source\PSoC5/C_Out.c **** *
  10:Generated_Source\PSoC5/C_Out.c **** ********************************************************************************
  11:Generated_Source\PSoC5/C_Out.c **** * Copyright 2008-2015, Cypress Semiconductor Corporation.  All rights reserved.
  12:Generated_Source\PSoC5/C_Out.c **** * You may use this file only in accordance with the license, terms, conditions, 
  13:Generated_Source\PSoC5/C_Out.c **** * disclaimers, and limitations in the end user license agreement accompanying 
  14:Generated_Source\PSoC5/C_Out.c **** * the software package with which this file was provided.
  15:Generated_Source\PSoC5/C_Out.c **** *******************************************************************************/
  16:Generated_Source\PSoC5/C_Out.c **** 
  17:Generated_Source\PSoC5/C_Out.c **** #include "cytypes.h"
  18:Generated_Source\PSoC5/C_Out.c **** #include "C_Out.h"
  19:Generated_Source\PSoC5/C_Out.c **** 
  20:Generated_Source\PSoC5/C_Out.c **** /* APIs are not generated for P15[7:6] on PSoC 5 */
  21:Generated_Source\PSoC5/C_Out.c **** #if !(CY_PSOC5A &&\
  22:Generated_Source\PSoC5/C_Out.c **** 	 C_Out__PORT == 15 && ((C_Out__MASK & 0xC0) != 0))
  23:Generated_Source\PSoC5/C_Out.c **** 
  24:Generated_Source\PSoC5/C_Out.c **** 
  25:Generated_Source\PSoC5/C_Out.c **** /*******************************************************************************
  26:Generated_Source\PSoC5/C_Out.c **** * Function Name: C_Out_Write
  27:Generated_Source\PSoC5/C_Out.c **** ****************************************************************************//**
  28:Generated_Source\PSoC5/C_Out.c **** *
  29:Generated_Source\PSoC5/C_Out.c **** * \brief Writes the value to the physical port (data output register), masking
  30:Generated_Source\PSoC5/C_Out.c **** *  and shifting the bits appropriately. 
ARM GAS  C:\Users\Rob\AppData\Local\Temp\ccRz8Y3P.s 			page 2


  31:Generated_Source\PSoC5/C_Out.c **** *
  32:Generated_Source\PSoC5/C_Out.c **** * The data output register controls the signal applied to the physical pin in 
  33:Generated_Source\PSoC5/C_Out.c **** * conjunction with the drive mode parameter. This function avoids changing 
  34:Generated_Source\PSoC5/C_Out.c **** * other bits in the port by using the appropriate method (read-modify-write or
  35:Generated_Source\PSoC5/C_Out.c **** * bit banding).
  36:Generated_Source\PSoC5/C_Out.c **** *
  37:Generated_Source\PSoC5/C_Out.c **** * <b>Note</b> This function should not be used on a hardware digital output pin 
  38:Generated_Source\PSoC5/C_Out.c **** * as it is driven by the hardware signal attached to it.
  39:Generated_Source\PSoC5/C_Out.c **** *
  40:Generated_Source\PSoC5/C_Out.c **** * \param value
  41:Generated_Source\PSoC5/C_Out.c **** *  Value to write to the component instance.
  42:Generated_Source\PSoC5/C_Out.c **** *
  43:Generated_Source\PSoC5/C_Out.c **** * \return 
  44:Generated_Source\PSoC5/C_Out.c **** *  None 
  45:Generated_Source\PSoC5/C_Out.c **** *
  46:Generated_Source\PSoC5/C_Out.c **** * \sideeffect
  47:Generated_Source\PSoC5/C_Out.c **** *  If you use read-modify-write operations that are not atomic; the Interrupt 
  48:Generated_Source\PSoC5/C_Out.c **** *  Service Routines (ISR) can cause corruption of this function. An ISR that 
  49:Generated_Source\PSoC5/C_Out.c **** *  interrupts this function and performs writes to the Pins component data 
  50:Generated_Source\PSoC5/C_Out.c **** *  register can cause corrupted port data. To avoid this issue, you should 
  51:Generated_Source\PSoC5/C_Out.c **** *  either use the Per-Pin APIs (primary method) or disable interrupts around 
  52:Generated_Source\PSoC5/C_Out.c **** *  this function.
  53:Generated_Source\PSoC5/C_Out.c **** *
  54:Generated_Source\PSoC5/C_Out.c **** * \funcusage
  55:Generated_Source\PSoC5/C_Out.c **** *  \snippet C_Out_SUT.c usage_C_Out_Write
  56:Generated_Source\PSoC5/C_Out.c **** *******************************************************************************/
  57:Generated_Source\PSoC5/C_Out.c **** void C_Out_Write(uint8 value)
  58:Generated_Source\PSoC5/C_Out.c **** {
  28              		.loc 1 58 0
  29              		.cfi_startproc
  30              		@ args = 0, pretend = 0, frame = 0
  31              		@ frame_needed = 0, uses_anonymous_args = 0
  32              		@ link register save eliminated.
  33              	.LVL0:
  59:Generated_Source\PSoC5/C_Out.c ****     uint8 staticBits = (C_Out_DR & (uint8)(~C_Out_MASK));
  34              		.loc 1 59 0
  35 0000 044A     		ldr	r2, .L2
  36 0002 1378     		ldrb	r3, [r2]	@ zero_extendqisi2
  37 0004 03F0C003 		and	r3, r3, #192
  38              	.LVL1:
  60:Generated_Source\PSoC5/C_Out.c ****     C_Out_DR = staticBits | ((uint8)(value << C_Out_SHIFT) & C_Out_MASK);
  39              		.loc 1 60 0
  40 0008 00F03F00 		and	r0, r0, #63
  41              	.LVL2:
  42 000c 1843     		orrs	r0, r0, r3
  43 000e 1070     		strb	r0, [r2]
  44 0010 7047     		bx	lr
  45              	.L3:
  46 0012 00BF     		.align	2
  47              	.L2:
  48 0014 30510040 		.word	1073762608
  49              		.cfi_endproc
  50              	.LFE0:
  51              		.size	C_Out_Write, .-C_Out_Write
  52              		.section	.text.C_Out_SetDriveMode,"ax",%progbits
  53              		.align	2
  54              		.global	C_Out_SetDriveMode
ARM GAS  C:\Users\Rob\AppData\Local\Temp\ccRz8Y3P.s 			page 3


  55              		.thumb
  56              		.thumb_func
  57              		.type	C_Out_SetDriveMode, %function
  58              	C_Out_SetDriveMode:
  59              	.LFB1:
  61:Generated_Source\PSoC5/C_Out.c **** }
  62:Generated_Source\PSoC5/C_Out.c **** 
  63:Generated_Source\PSoC5/C_Out.c **** 
  64:Generated_Source\PSoC5/C_Out.c **** /*******************************************************************************
  65:Generated_Source\PSoC5/C_Out.c **** * Function Name: C_Out_SetDriveMode
  66:Generated_Source\PSoC5/C_Out.c **** ****************************************************************************//**
  67:Generated_Source\PSoC5/C_Out.c **** *
  68:Generated_Source\PSoC5/C_Out.c **** * \brief Sets the drive mode for each of the Pins component's pins.
  69:Generated_Source\PSoC5/C_Out.c **** * 
  70:Generated_Source\PSoC5/C_Out.c **** * <b>Note</b> This affects all pins in the Pins component instance. Use the
  71:Generated_Source\PSoC5/C_Out.c **** * Per-Pin APIs if you wish to control individual pin's drive modes.
  72:Generated_Source\PSoC5/C_Out.c **** *
  73:Generated_Source\PSoC5/C_Out.c **** * \param mode
  74:Generated_Source\PSoC5/C_Out.c **** *  Mode for the selected signals. Valid options are documented in 
  75:Generated_Source\PSoC5/C_Out.c **** *  \ref driveMode.
  76:Generated_Source\PSoC5/C_Out.c **** *
  77:Generated_Source\PSoC5/C_Out.c **** * \return
  78:Generated_Source\PSoC5/C_Out.c **** *  None
  79:Generated_Source\PSoC5/C_Out.c **** *
  80:Generated_Source\PSoC5/C_Out.c **** * \sideeffect
  81:Generated_Source\PSoC5/C_Out.c **** *  If you use read-modify-write operations that are not atomic, the ISR can
  82:Generated_Source\PSoC5/C_Out.c **** *  cause corruption of this function. An ISR that interrupts this function 
  83:Generated_Source\PSoC5/C_Out.c **** *  and performs writes to the Pins component Drive Mode registers can cause 
  84:Generated_Source\PSoC5/C_Out.c **** *  corrupted port data. To avoid this issue, you should either use the Per-Pin
  85:Generated_Source\PSoC5/C_Out.c **** *  APIs (primary method) or disable interrupts around this function.
  86:Generated_Source\PSoC5/C_Out.c **** *
  87:Generated_Source\PSoC5/C_Out.c **** * \funcusage
  88:Generated_Source\PSoC5/C_Out.c **** *  \snippet C_Out_SUT.c usage_C_Out_SetDriveMode
  89:Generated_Source\PSoC5/C_Out.c **** *******************************************************************************/
  90:Generated_Source\PSoC5/C_Out.c **** void C_Out_SetDriveMode(uint8 mode)
  91:Generated_Source\PSoC5/C_Out.c **** {
  60              		.loc 1 91 0
  61              		.cfi_startproc
  62              		@ args = 0, pretend = 0, frame = 0
  63              		@ frame_needed = 0, uses_anonymous_args = 0
  64              		@ link register save eliminated.
  65              	.LVL3:
  92:Generated_Source\PSoC5/C_Out.c **** 	CyPins_SetPinDriveMode(C_Out_0, mode);
  66              		.loc 1 92 0
  67 0000 134A     		ldr	r2, .L5
  68 0002 1378     		ldrb	r3, [r2]	@ zero_extendqisi2
  69 0004 00F00E00 		and	r0, r0, #14
  70              	.LVL4:
  71 0008 03F0F103 		and	r3, r3, #241
  72 000c 0343     		orrs	r3, r3, r0
  73 000e 1370     		strb	r3, [r2]
  93:Generated_Source\PSoC5/C_Out.c **** 	CyPins_SetPinDriveMode(C_Out_1, mode);
  74              		.loc 1 93 0
  75 0010 0132     		adds	r2, r2, #1
  76 0012 1378     		ldrb	r3, [r2]	@ zero_extendqisi2
  77 0014 03F0F103 		and	r3, r3, #241
  78 0018 0343     		orrs	r3, r3, r0
ARM GAS  C:\Users\Rob\AppData\Local\Temp\ccRz8Y3P.s 			page 4


  79 001a 1370     		strb	r3, [r2]
  94:Generated_Source\PSoC5/C_Out.c **** 	CyPins_SetPinDriveMode(C_Out_2, mode);
  80              		.loc 1 94 0
  81 001c 0132     		adds	r2, r2, #1
  82 001e 1378     		ldrb	r3, [r2]	@ zero_extendqisi2
  83 0020 03F0F103 		and	r3, r3, #241
  84 0024 0343     		orrs	r3, r3, r0
  85 0026 1370     		strb	r3, [r2]
  95:Generated_Source\PSoC5/C_Out.c **** 	CyPins_SetPinDriveMode(C_Out_3, mode);
  86              		.loc 1 95 0
  87 0028 0132     		adds	r2, r2, #1
  88 002a 1378     		ldrb	r3, [r2]	@ zero_extendqisi2
  89 002c 03F0F103 		and	r3, r3, #241
  90 0030 0343     		orrs	r3, r3, r0
  91 0032 1370     		strb	r3, [r2]
  96:Generated_Source\PSoC5/C_Out.c **** 	CyPins_SetPinDriveMode(C_Out_4, mode);
  92              		.loc 1 96 0
  93 0034 0132     		adds	r2, r2, #1
  94 0036 1378     		ldrb	r3, [r2]	@ zero_extendqisi2
  95 0038 03F0F103 		and	r3, r3, #241
  96 003c 0343     		orrs	r3, r3, r0
  97 003e 1370     		strb	r3, [r2]
  97:Generated_Source\PSoC5/C_Out.c **** 	CyPins_SetPinDriveMode(C_Out_5, mode);
  98              		.loc 1 97 0
  99 0040 0132     		adds	r2, r2, #1
 100 0042 1378     		ldrb	r3, [r2]	@ zero_extendqisi2
 101 0044 03F0F103 		and	r3, r3, #241
 102 0048 1843     		orrs	r0, r0, r3
 103 004a 1070     		strb	r0, [r2]
 104 004c 7047     		bx	lr
 105              	.L6:
 106 004e 00BF     		.align	2
 107              	.L5:
 108 0050 18500040 		.word	1073762328
 109              		.cfi_endproc
 110              	.LFE1:
 111              		.size	C_Out_SetDriveMode, .-C_Out_SetDriveMode
 112              		.section	.text.C_Out_Read,"ax",%progbits
 113              		.align	2
 114              		.global	C_Out_Read
 115              		.thumb
 116              		.thumb_func
 117              		.type	C_Out_Read, %function
 118              	C_Out_Read:
 119              	.LFB2:
  98:Generated_Source\PSoC5/C_Out.c **** }
  99:Generated_Source\PSoC5/C_Out.c **** 
 100:Generated_Source\PSoC5/C_Out.c **** 
 101:Generated_Source\PSoC5/C_Out.c **** /*******************************************************************************
 102:Generated_Source\PSoC5/C_Out.c **** * Function Name: C_Out_Read
 103:Generated_Source\PSoC5/C_Out.c **** ****************************************************************************//**
 104:Generated_Source\PSoC5/C_Out.c **** *
 105:Generated_Source\PSoC5/C_Out.c **** * \brief Reads the associated physical port (pin status register) and masks 
 106:Generated_Source\PSoC5/C_Out.c **** *  the required bits according to the width and bit position of the component
 107:Generated_Source\PSoC5/C_Out.c **** *  instance. 
 108:Generated_Source\PSoC5/C_Out.c **** *
 109:Generated_Source\PSoC5/C_Out.c **** * The pin's status register returns the current logic level present on the 
ARM GAS  C:\Users\Rob\AppData\Local\Temp\ccRz8Y3P.s 			page 5


 110:Generated_Source\PSoC5/C_Out.c **** * physical pin.
 111:Generated_Source\PSoC5/C_Out.c **** *
 112:Generated_Source\PSoC5/C_Out.c **** * \return 
 113:Generated_Source\PSoC5/C_Out.c **** *  The current value for the pins in the component as a right justified number.
 114:Generated_Source\PSoC5/C_Out.c **** *
 115:Generated_Source\PSoC5/C_Out.c **** * \funcusage
 116:Generated_Source\PSoC5/C_Out.c **** *  \snippet C_Out_SUT.c usage_C_Out_Read  
 117:Generated_Source\PSoC5/C_Out.c **** *******************************************************************************/
 118:Generated_Source\PSoC5/C_Out.c **** uint8 C_Out_Read(void)
 119:Generated_Source\PSoC5/C_Out.c **** {
 120              		.loc 1 119 0
 121              		.cfi_startproc
 122              		@ args = 0, pretend = 0, frame = 0
 123              		@ frame_needed = 0, uses_anonymous_args = 0
 124              		@ link register save eliminated.
 120:Generated_Source\PSoC5/C_Out.c ****     return (C_Out_PS & C_Out_MASK) >> C_Out_SHIFT;
 125              		.loc 1 120 0
 126 0000 024B     		ldr	r3, .L8
 127 0002 1878     		ldrb	r0, [r3]	@ zero_extendqisi2
 121:Generated_Source\PSoC5/C_Out.c **** }
 128              		.loc 1 121 0
 129 0004 00F03F00 		and	r0, r0, #63
 130 0008 7047     		bx	lr
 131              	.L9:
 132 000a 00BF     		.align	2
 133              	.L8:
 134 000c 31510040 		.word	1073762609
 135              		.cfi_endproc
 136              	.LFE2:
 137              		.size	C_Out_Read, .-C_Out_Read
 138              		.section	.text.C_Out_ReadDataReg,"ax",%progbits
 139              		.align	2
 140              		.global	C_Out_ReadDataReg
 141              		.thumb
 142              		.thumb_func
 143              		.type	C_Out_ReadDataReg, %function
 144              	C_Out_ReadDataReg:
 145              	.LFB3:
 122:Generated_Source\PSoC5/C_Out.c **** 
 123:Generated_Source\PSoC5/C_Out.c **** 
 124:Generated_Source\PSoC5/C_Out.c **** /*******************************************************************************
 125:Generated_Source\PSoC5/C_Out.c **** * Function Name: C_Out_ReadDataReg
 126:Generated_Source\PSoC5/C_Out.c **** ****************************************************************************//**
 127:Generated_Source\PSoC5/C_Out.c **** *
 128:Generated_Source\PSoC5/C_Out.c **** * \brief Reads the associated physical port's data output register and masks 
 129:Generated_Source\PSoC5/C_Out.c **** *  the correct bits according to the width and bit position of the component 
 130:Generated_Source\PSoC5/C_Out.c **** *  instance. 
 131:Generated_Source\PSoC5/C_Out.c **** *
 132:Generated_Source\PSoC5/C_Out.c **** * The data output register controls the signal applied to the physical pin in 
 133:Generated_Source\PSoC5/C_Out.c **** * conjunction with the drive mode parameter. This is not the same as the 
 134:Generated_Source\PSoC5/C_Out.c **** * preferred C_Out_Read() API because the 
 135:Generated_Source\PSoC5/C_Out.c **** * C_Out_ReadDataReg() reads the data register instead of the status 
 136:Generated_Source\PSoC5/C_Out.c **** * register. For output pins this is a useful function to determine the value 
 137:Generated_Source\PSoC5/C_Out.c **** * just written to the pin.
 138:Generated_Source\PSoC5/C_Out.c **** *
 139:Generated_Source\PSoC5/C_Out.c **** * \return 
 140:Generated_Source\PSoC5/C_Out.c **** *  The current value of the data register masked and shifted into a right 
ARM GAS  C:\Users\Rob\AppData\Local\Temp\ccRz8Y3P.s 			page 6


 141:Generated_Source\PSoC5/C_Out.c **** *  justified number for the component instance.
 142:Generated_Source\PSoC5/C_Out.c **** *
 143:Generated_Source\PSoC5/C_Out.c **** * \funcusage
 144:Generated_Source\PSoC5/C_Out.c **** *  \snippet C_Out_SUT.c usage_C_Out_ReadDataReg 
 145:Generated_Source\PSoC5/C_Out.c **** *******************************************************************************/
 146:Generated_Source\PSoC5/C_Out.c **** uint8 C_Out_ReadDataReg(void)
 147:Generated_Source\PSoC5/C_Out.c **** {
 146              		.loc 1 147 0
 147              		.cfi_startproc
 148              		@ args = 0, pretend = 0, frame = 0
 149              		@ frame_needed = 0, uses_anonymous_args = 0
 150              		@ link register save eliminated.
 148:Generated_Source\PSoC5/C_Out.c ****     return (C_Out_DR & C_Out_MASK) >> C_Out_SHIFT;
 151              		.loc 1 148 0
 152 0000 024B     		ldr	r3, .L11
 153 0002 1878     		ldrb	r0, [r3]	@ zero_extendqisi2
 149:Generated_Source\PSoC5/C_Out.c **** }
 154              		.loc 1 149 0
 155 0004 00F03F00 		and	r0, r0, #63
 156 0008 7047     		bx	lr
 157              	.L12:
 158 000a 00BF     		.align	2
 159              	.L11:
 160 000c 30510040 		.word	1073762608
 161              		.cfi_endproc
 162              	.LFE3:
 163              		.size	C_Out_ReadDataReg, .-C_Out_ReadDataReg
 164              		.text
 165              	.Letext0:
 166              		.file 2 "Generated_Source\\PSoC5\\cytypes.h"